target datalayout = "e-m:e-p270:32:32-p271:32:32-p272:64:64-i64:64-i128:128-f80:128-n8:16:32:64-S128"
target triple = "x86_64-pc-linux-gnu"

%struct.option = type { i32, i32, ptr, ptr, ptr, ptr, i32, ptr, i64, ptr, i64, ptr }

; Function Attrs: nounwind uwtable
define dso_local i32 @parseopt_column_callback(ptr noundef %0, ptr noundef %1, i32 noundef %2) #0 {
  %4 = alloca i32, align 4
  %5 = alloca ptr, align 8
  %6 = alloca ptr, align 8
  %7 = alloca i32, align 4
  %8 = alloca ptr, align 8
  %9 = alloca i32, align 4
  store ptr %0, ptr %5, align 8, !tbaa !46
  store ptr %1, ptr %6, align 8, !tbaa !23
  store i32 %2, ptr %7, align 4, !tbaa !9
  call void @llvm.lifetime.start.p0(i64 8, ptr %8) #9
  %10 = load ptr, ptr %5, align 8, !tbaa !46
  %11 = getelementptr inbounds nuw %struct.option, ptr %10, i32 0, i32 3
  %12 = load ptr, ptr %11, align 8, !tbaa !48
  store ptr %12, ptr %8, align 8, !tbaa !41
  %13 = load ptr, ptr %8, align 8, !tbaa !41
  %14 = load i32, ptr %13, align 4, !tbaa !9
  %15 = or i32 %14, 64
  store i32 %15, ptr %13, align 4, !tbaa !9
  %16 = load ptr, ptr %8, align 8, !tbaa !41
  %17 = load i32, ptr %16, align 4, !tbaa !9
  %18 = and i32 %17, -49
  store i32 %18, ptr %16, align 4, !tbaa !9
  %19 = load i32, ptr %7, align 4, !tbaa !9
  %20 = icmp ne i32 %19, 0
  br i1 %20, label %21, label %22

21:                                               ; preds = %3
  store i32 0, ptr %4, align 4
  store i32 1, ptr %9, align 4
  br label %33

22:                                               ; preds = %3
  %23 = load ptr, ptr %8, align 8, !tbaa !41
  %24 = load i32, ptr %23, align 4, !tbaa !9
  %25 = or i32 %24, 16
  store i32 %25, ptr %23, align 4, !tbaa !9
  %26 = load ptr, ptr %6, align 8, !tbaa !23
  %27 = icmp ne ptr %26, null
  br i1 %27, label %28, label %32

28:                                               ; preds = %22
  %29 = load ptr, ptr %8, align 8, !tbaa !41
  %30 = load ptr, ptr %6, align 8, !tbaa !23
  %31 = call i32 @parse_config(ptr noundef %29, ptr noundef %30)
  store i32 %31, ptr %4, align 4
  store i32 1, ptr %9, align 4
  br label %33

32:                                               ; preds = %22
  store i32 0, ptr %4, align 4
  store i32 1, ptr %9, align 4
  br label %33

33:                                               ; preds = %32, %28, %21
  call void @llvm.lifetime.end.p0(i64 8, ptr %8) #9
  %34 = load i32, ptr %4, align 4
  ret i32 %34
}