; Function Attrs: nounwind uwtable
define dso_local range(i32 -1, 1) i32 @parseopt_column_callback(ptr noundef readonly captures(none) %0, ptr noundef %1, i32 noundef %2) local_unnamed_addr #0 {
  %4 = getelementptr inbounds nuw i8, ptr %0, i64 16
  %5 = load ptr, ptr %4, align 8, !tbaa !33
  %6 = load i32, ptr %5, align 4, !tbaa !23
  %7 = and i32 %6, -113
  %8 = or disjoint i32 %7, 64
  store i32 %8, ptr %5, align 4, !tbaa !23
  %.not = icmp eq i32 %2, 0
  br i1 %.not, label %9, label %13

9:                                                ; preds = %3
  %10 = or disjoint i32 %7, 80
  store i32 %10, ptr %5, align 4, !tbaa !23
  %.not9 = icmp eq ptr %1, null
  br i1 %.not9, label %13, label %11

11:                                               ; preds = %9
  %12 = tail call fastcc i32 @parse_config(ptr noundef nonnull %5, ptr noundef %1)
  br label %13

13:                                               ; preds = %9, %3, %11
  %.0 = phi i32 [ %12, %11 ], [ 0, %3 ], [ 0, %9 ]
  ret i32 %.0
}